; ModuleID = '29/1440.c'
source_filename = "29/1440.c"
target datalayout = "e-m:e-p270:32:32-p271:32:32-p272:64:64-i64:64-f80:128-n8:16:32:64-S128"
target triple = "x86_64-pc-linux-gnu"

@.str = private unnamed_addr constant [3 x i8] c"%d\00", align 1
@.str.1 = private unnamed_addr constant [6 x i8] c"%.3f\0A\00", align 1

; Function Attrs: noinline nounwind uwtable
define dso_local i32 @main() #0 {
  %1 = alloca i32, align 4
  %2 = alloca i32, align 4
  %3 = alloca i32, align 4
  %4 = alloca i32, align 4
  %5 = alloca i32, align 4
  %6 = alloca [100000 x i32], align 16
  %7 = alloca [100000 x i32], align 16
  %8 = alloca float, align 4
  store i32 0, i32* %1, align 4
  %9 = call i32 (i8*, ...) @__isoc99_scanf(i8* getelementptr inbounds ([3 x i8], [3 x i8]* @.str, i64 0, i64 0), i32* %2)
  store float 0.000000e+00, float* %8, align 4
  %10 = getelementptr inbounds [100000 x i32], [100000 x i32]* %6, i64 0, i64 0
  store i32 1, i32* %10, align 16
  %11 = getelementptr inbounds [100000 x i32], [100000 x i32]* %6, i64 0, i64 1
  store i32 2, i32* %11, align 4
  %12 = getelementptr inbounds [100000 x i32], [100000 x i32]* %7, i64 0, i64 0
  store i32 2, i32* %12, align 16
  %13 = getelementptr inbounds [100000 x i32], [100000 x i32]* %7, i64 0, i64 1
  store i32 3, i32* %13, align 4
  store i32 0, i32* %4, align 4
  br label %14

14:                                               ; preds = %97, %0
  %15 = load i32, i32* %4, align 4
  %16 = load i32, i32* %2, align 4
  %17 = icmp slt i32 %15, %16
  br i1 %17, label %18, label %100

18:                                               ; preds = %14
  store float 0.000000e+00, float* %8, align 4
  %19 = call i32 (i8*, ...) @__isoc99_scanf(i8* getelementptr inbounds ([3 x i8], [3 x i8]* @.str, i64 0, i64 0), i32* %5)
  %20 = load i32, i32* %5, align 4
  %21 = icmp sgt i32 %20, 2
  br i1 %21, label %22, label %80

22:                                               ; preds = %18
  store i32 2, i32* %3, align 4
  br label %23

23:                                               ; preds = %72, %22
  %24 = load i32, i32* %3, align 4
  %25 = load i32, i32* %5, align 4
  %26 = icmp slt i32 %24, %25
  br i1 %26, label %27, label %75

27:                                               ; preds = %23
  %28 = load i32, i32* %3, align 4
  %29 = sub nsw i32 %28, 1
  %30 = sext i32 %29 to i64
  %31 = getelementptr inbounds [100000 x i32], [100000 x i32]* %6, i64 0, i64 %30
  %32 = load i32, i32* %31, align 4
  %33 = load i32, i32* %3, align 4
  %34 = sub nsw i32 %33, 2
  %35 = sext i32 %34 to i64
  %36 = getelementptr inbounds [100000 x i32], [100000 x i32]* %6, i64 0, i64 %35
  %37 = load i32, i32* %36, align 4
  %38 = add nsw i32 %32, %37
  %39 = load i32, i32* %3, align 4
  %40 = sext i32 %39 to i64
  %41 = getelementptr inbounds [100000 x i32], [100000 x i32]* %6, i64 0, i64 %40
  store i32 %38, i32* %41, align 4
  %42 = load i32, i32* %3, align 4
  %43 = sub nsw i32 %42, 1
  %44 = sext i32 %43 to i64
  %45 = getelementptr inbounds [100000 x i32], [100000 x i32]* %7, i64 0, i64 %44
  %46 = load i32, i32* %45, align 4
  %47 = load i32, i32* %3, align 4
  %48 = sub nsw i32 %47, 2
  %49 = sext i32 %48 to i64
  %50 = getelementptr inbounds [100000 x i32], [100000 x i32]* %7, i64 0, i64 %49
  %51 = load i32, i32* %50, align 4
  %52 = add nsw i32 %46, %51
  %53 = load i32, i32* %3, align 4
  %54 = sext i32 %53 to i64
  %55 = getelementptr inbounds [100000 x i32], [100000 x i32]* %7, i64 0, i64 %54
  store i32 %52, i32* %55, align 4
  %56 = load i32, i32* %3, align 4
  %57 = sext i32 %56 to i64
  %58 = getelementptr inbounds [100000 x i32], [100000 x i32]* %7, i64 0, i64 %57
  %59 = load i32, i32* %58, align 4
  %60 = sitofp i32 %59 to double
  %61 = fmul double 1.000000e+00, %60
  %62 = load i32, i32* %3, align 4
  %63 = sext i32 %62 to i64
  %64 = getelementptr inbounds [100000 x i32], [100000 x i32]* %6, i64 0, i64 %63
  %65 = load i32, i32* %64, align 4
  %66 = sitofp i32 %65 to double
  %67 = fdiv double %61, %66
  %68 = load float, float* %8, align 4
  %69 = fpext float %68 to double
  %70 = fadd double %69, %67
  %71 = fptrunc double %70 to float
  store float %71, float* %8, align 4
  br label %72

72:                                               ; preds = %27
  %73 = load i32, i32* %3, align 4
  %74 = add nsw i32 %73, 1
  store i32 %74, i32* %3, align 4
  br label %23

75:                                               ; preds = %23
  %76 = load float, float* %8, align 4
  %77 = fpext float %76 to double
  %78 = fadd double %77, 3.500000e+00
  %79 = call i32 (i8*, ...) @printf(i8* getelementptr inbounds ([6 x i8], [6 x i8]* @.str.1, i64 0, i64 0), double %78)
  br label %96

80:                                               ; preds = %18
  %81 = load i32, i32* %5, align 4
  %82 = icmp eq i32 %81, 2
  br i1 %82, label %83, label %87

83:                                               ; preds = %80
  store float 3.500000e+00, float* %8, align 4
  %84 = load float, float* %8, align 4
  %85 = fpext float %84 to double
  %86 = call i32 (i8*, ...) @printf(i8* getelementptr inbounds ([6 x i8], [6 x i8]* @.str.1, i64 0, i64 0), double %85)
  br label %95

87:                                               ; preds = %80
  %88 = load i32, i32* %5, align 4
  %89 = icmp eq i32 %88, 1
  br i1 %89, label %90, label %94

90:                                               ; preds = %87
  store float 2.000000e+00, float* %8, align 4
  %91 = load float, float* %8, align 4
  %92 = fpext float %91 to double
  %93 = call i32 (i8*, ...) @printf(i8* getelementptr inbounds ([6 x i8], [6 x i8]* @.str.1, i64 0, i64 0), double %92)
  br label %94

94:                                               ; preds = %90, %87
  br label %95

95:                                               ; preds = %94, %83
  br label %96

96:                                               ; preds = %95, %75
  br label %97

97:                                               ; preds = %96
  %98 = load i32, i32* %4, align 4
  %99 = add nsw i32 %98, 1
  store i32 %99, i32* %4, align 4
  br label %14

100:                                              ; preds = %14
  ret i32 0
}

declare dso_local i32 @__isoc99_scanf(i8*, ...) #1

declare dso_local i32 @printf(i8*, ...) #1


!llvm.module.flags = !{!0}
!llvm.ident = !{!1}

!0 = !{i32 1, !"wchar_size", i32 4}
!1 = !{!"clang version 10.0.0-4ubuntu1 "}
